; Function Attrs: mustprogress nofree norecurse nosync nounwind willreturn memory(write, argmem: none, inaccessiblemem: none) uwtable
define void @b2World_EnableSpeculative(i32 %0, i1 noundef zeroext %1) local_unnamed_addr #14 {
  %3 = zext i1 %1 to i8
  %4 = and i32 %0, 65535
  %5 = zext nneg i32 %4 to i64
  %6 = getelementptr %struct.b2World, ptr @b2_worlds, i64 %5
  %7 = getelementptr i8, ptr %6, i64 -6
  store i8 %3, ptr %7, align 2, !tbaa !138
  ret void
}